target datalayout = "e-m:e-p270:32:32-p271:32:32-p272:64:64-i64:64-i128:128-f80:128-n8:16:32:64-S128"
target triple = "x86_64-pc-linux-gnu"

%struct.global_State = type { ptr, ptr, %struct.GCState, %struct.GCstr, i8, i8, i8, i8, %struct.StrInternState, i32, %struct.GCRef, %struct.SBuf, %union.TValue, %union.TValue, %struct.Node, %union.TValue, %struct.GCupval, i32, i32, ptr, ptr, ptr, i32, i32, %struct.GCRef, %struct.MRef, %struct.MRef, %struct.PRNGState, [39 x %struct.GCRef] }
%struct.GCState = type { i64, i64, i8, i8, i8, i8, i32, %struct.GCRef, %struct.MRef, %struct.GCRef, %struct.GCRef, %struct.GCRef, %struct.GCRef, i64, i64, i32, i32, %struct.MRef }
%struct.GCstr = type { %struct.GCRef, i8, i8, i8, i8, i32, i32, i32 }
%struct.StrInternState = type { ptr, i32, i32, i32, i8, i8, i8, i8, i64 }
%struct.SBuf = type { ptr, ptr, ptr, %struct.MRef }
%struct.Node = type { %union.TValue, %union.TValue, %struct.MRef }
%union.TValue = type { i64 }
%struct.GCupval = type { %struct.GCRef, i8, i8, i8, i8, %union.anon, %struct.MRef, i32 }
%union.anon = type { %struct.anon.1 }
%struct.anon.1 = type { %struct.GCRef, %struct.GCRef }
%struct.GCRef = type { i64 }
%struct.MRef = type { i64 }
%struct.PRNGState = type { [4 x i64] }
%struct.lua_State = type { %struct.GCRef, i8, i8, i8, i8, %struct.MRef, %struct.GCRef, ptr, ptr, %struct.MRef, %struct.MRef, %struct.GCRef, %struct.GCRef, ptr, i32 }
%struct.GChead = type { %struct.GCRef, i8, i8, i8, i8, %struct.GCRef, %struct.GCRef, %struct.GCRef }
%struct.GCtab = type { %struct.GCRef, i8, i8, i8, i8, %struct.MRef, %struct.GCRef, %struct.GCRef, %struct.MRef, i32, i32, %struct.MRef }

@.str.1 = private unnamed_addr constant [23 x i8] c"copy of dead GC object\00", align 1

; Function Attrs: alwaysinline nounwind uwtable
define internal void @checklivetv(ptr noundef %0, ptr noundef %1, ptr noundef %2) #4 {
  %4 = alloca ptr, align 8
  %5 = alloca ptr, align 8
  %6 = alloca ptr, align 8
  store ptr %0, ptr %4, align 8, !tbaa !37
  store ptr %1, ptr %5, align 8, !tbaa !45
  store ptr %2, ptr %6, align 8, !tbaa !118
  ret void
}

; Function Attrs: alwaysinline nounwind uwtable
define internal void @copyTV(ptr noundef %0, ptr noundef %1, ptr noundef %2) #4 {
  %4 = alloca ptr, align 8
  %5 = alloca ptr, align 8
  %6 = alloca ptr, align 8
  store ptr %0, ptr %4, align 8, !tbaa !37
  store ptr %1, ptr %5, align 8, !tbaa !45
  store ptr %2, ptr %6, align 8, !tbaa !45
  %7 = load ptr, ptr %5, align 8, !tbaa !45
  %8 = load ptr, ptr %6, align 8, !tbaa !45
  call void @llvm.memcpy.p0.p0.i64(ptr align 8 %7, ptr align 8 %8, i64 8, i1 false), !tbaa.struct !54
  %9 = load ptr, ptr %4, align 8, !tbaa !37
  %10 = load ptr, ptr %5, align 8, !tbaa !45
  call void @checklivetv(ptr noundef %9, ptr noundef %10, ptr noundef @.str.1)
  ret void
}

; Function Attrs: nounwind uwtable
define hidden void @lj_gc_finalize_cdata(ptr noundef %0) #0 {
  %2 = alloca ptr, align 8
  %3 = alloca ptr, align 8
  %4 = alloca ptr, align 8
  %5 = alloca ptr, align 8
  %6 = alloca i64, align 8
  %7 = alloca ptr, align 8
  %8 = alloca %union.TValue, align 8
  store ptr %0, ptr %2, align 8, !tbaa !37
  call void @llvm.lifetime.start.p0(i64 8, ptr %3) #7
  %9 = load ptr, ptr %2, align 8, !tbaa !37
  %10 = getelementptr inbounds nuw %struct.lua_State, ptr %9, i32 0, i32 5
  %11 = getelementptr inbounds nuw %struct.MRef, ptr %10, i32 0, i32 0
  %12 = load i64, ptr %11, align 8, !tbaa !39
  %13 = inttoptr i64 %12 to ptr
  store ptr %13, ptr %3, align 8, !tbaa !4
  call void @llvm.lifetime.start.p0(i64 8, ptr %4) #7
  %14 = load ptr, ptr %3, align 8, !tbaa !4
  %15 = getelementptr inbounds nuw %struct.global_State, ptr %14, i32 0, i32 28
  %16 = getelementptr inbounds [39 x %struct.GCRef], ptr %15, i64 0, i64 38
  %17 = getelementptr inbounds nuw %struct.GCRef, ptr %16, i32 0, i32 0
  %18 = load i64, ptr %17, align 8, !tbaa !27
  %19 = inttoptr i64 %18 to ptr
  store ptr %19, ptr %4, align 8, !tbaa !46
  call void @llvm.lifetime.start.p0(i64 8, ptr %5) #7
  %20 = load ptr, ptr %4, align 8, !tbaa !46
  %21 = getelementptr inbounds nuw %struct.GCtab, ptr %20, i32 0, i32 8
  %22 = getelementptr inbounds nuw %struct.MRef, ptr %21, i32 0, i32 0
  %23 = load i64, ptr %22, align 8, !tbaa !48
  %24 = inttoptr i64 %23 to ptr
  store ptr %24, ptr %5, align 8, !tbaa !49
  call void @llvm.lifetime.start.p0(i64 8, ptr %6) #7
  %25 = load ptr, ptr %4, align 8, !tbaa !46
  %26 = getelementptr inbounds nuw %struct.GCtab, ptr %25, i32 0, i32 7
  %27 = getelementptr inbounds nuw %struct.GCRef, ptr %26, i32 0, i32 0
  store i64 0, ptr %27, align 8, !tbaa !51
  %28 = load ptr, ptr %4, align 8, !tbaa !46
  %29 = getelementptr inbounds nuw %struct.GCtab, ptr %28, i32 0, i32 10
  %30 = load i32, ptr %29, align 4, !tbaa !52
  %31 = zext i32 %30 to i64
  store i64 %31, ptr %6, align 8, !tbaa !11
  br label %32

32:                                               ; preds = %94, %1
  %33 = load i64, ptr %6, align 8, !tbaa !11
  %34 = icmp sge i64 %33, 0
  br i1 %34, label %35, label %97

35:                                               ; preds = %32
  %36 = load ptr, ptr %5, align 8, !tbaa !49
  %37 = load i64, ptr %6, align 8, !tbaa !11
  %38 = getelementptr inbounds %struct.Node, ptr %36, i64 %37
  %39 = getelementptr inbounds nuw %struct.Node, ptr %38, i32 0, i32 0
  %40 = load i64, ptr %39, align 8, !tbaa !30
  %41 = icmp eq i64 %40, -1
  br i1 %41, label %93, label %42

42:                                               ; preds = %35
  %43 = load ptr, ptr %5, align 8, !tbaa !49
  %44 = load i64, ptr %6, align 8, !tbaa !11
  %45 = getelementptr inbounds %struct.Node, ptr %43, i64 %44
  %46 = getelementptr inbounds nuw %struct.Node, ptr %45, i32 0, i32 1
  %47 = load i64, ptr %46, align 8, !tbaa !30
  %48 = ashr i64 %47, 47
  %49 = trunc i64 %48 to i32
  %50 = icmp eq i32 %49, -11
  br i1 %50, label %51, label %93

51:                                               ; preds = %42
  call void @llvm.lifetime.start.p0(i64 8, ptr %7) #7
  %52 = load ptr, ptr %5, align 8, !tbaa !49
  %53 = load i64, ptr %6, align 8, !tbaa !11
  %54 = getelementptr inbounds %struct.Node, ptr %52, i64 %53
  %55 = getelementptr inbounds nuw %struct.Node, ptr %54, i32 0, i32 1
  %56 = getelementptr inbounds nuw %struct.GCRef, ptr %55, i32 0, i32 0
  %57 = load i64, ptr %56, align 8, !tbaa !30
  %58 = and i64 %57, 140737488355327
  %59 = inttoptr i64 %58 to ptr
  store ptr %59, ptr %7, align 8, !tbaa !28
  call void @llvm.lifetime.start.p0(i64 8, ptr %8) #7
  %60 = load ptr, ptr %7, align 8, !tbaa !28
  %61 = getelementptr inbounds nuw %struct.GChead, ptr %60, i32 0, i32 1
  %62 = load i8, ptr %61, align 8, !tbaa !30
  %63 = zext i8 %62 to i32
  %64 = and i32 %63, 248
  %65 = load ptr, ptr %3, align 8, !tbaa !4
  %66 = getelementptr inbounds nuw %struct.global_State, ptr %65, i32 0, i32 2
  %67 = getelementptr inbounds nuw %struct.GCState, ptr %66, i32 0, i32 2
  %68 = load i8, ptr %67, align 8, !tbaa !44
  %69 = zext i8 %68 to i32
  %70 = and i32 %69, 3
  %71 = or i32 %64, %70
  %72 = trunc i32 %71 to i8
  %73 = load ptr, ptr %7, align 8, !tbaa !28
  %74 = getelementptr inbounds nuw %struct.GChead, ptr %73, i32 0, i32 1
  store i8 %72, ptr %74, align 8, !tbaa !30
  %75 = load ptr, ptr %7, align 8, !tbaa !28
  %76 = getelementptr inbounds nuw %struct.GChead, ptr %75, i32 0, i32 1
  %77 = load i8, ptr %76, align 8, !tbaa !30
  %78 = zext i8 %77 to i32
  %79 = and i32 %78, 239
  %80 = trunc i32 %79 to i8
  store i8 %80, ptr %76, align 8, !tbaa !30
  %81 = load ptr, ptr %2, align 8, !tbaa !37
  %82 = load ptr, ptr %5, align 8, !tbaa !49
  %83 = load i64, ptr %6, align 8, !tbaa !11
  %84 = getelementptr inbounds %struct.Node, ptr %82, i64 %83
  %85 = getelementptr inbounds nuw %struct.Node, ptr %84, i32 0, i32 0
  call void @copyTV(ptr noundef %81, ptr noundef %8, ptr noundef %85)
  %86 = load ptr, ptr %5, align 8, !tbaa !49
  %87 = load i64, ptr %6, align 8, !tbaa !11
  %88 = getelementptr inbounds %struct.Node, ptr %86, i64 %87
  %89 = getelementptr inbounds nuw %struct.Node, ptr %88, i32 0, i32 0
  store i64 -1, ptr %89, align 8, !tbaa !30
  %90 = load ptr, ptr %3, align 8, !tbaa !4
  %91 = load ptr, ptr %2, align 8, !tbaa !37
  %92 = load ptr, ptr %7, align 8, !tbaa !28
  call void @gc_call_finalizer(ptr noundef %90, ptr noundef %91, ptr noundef %8, ptr noundef %92)
  call void @llvm.lifetime.end.p0(i64 8, ptr %8) #7
  call void @llvm.lifetime.end.p0(i64 8, ptr %7) #7
  br label %93

93:                                               ; preds = %51, %42, %35
  br label %94

94:                                               ; preds = %93
  %95 = load i64, ptr %6, align 8, !tbaa !11
  %96 = add nsw i64 %95, -1
  store i64 %96, ptr %6, align 8, !tbaa !11
  br label %32, !llvm.loop !53

97:                                               ; preds = %32
  call void @llvm.lifetime.end.p0(i64 8, ptr %6) #7
  call void @llvm.lifetime.end.p0(i64 8, ptr %5) #7
  call void @llvm.lifetime.end.p0(i64 8, ptr %4) #7
  call void @llvm.lifetime.end.p0(i64 8, ptr %3) #7
  ret void
}