; Function Attrs: nounwind uwtable
define hidden void @lj_gc_finalize_cdata(ptr noundef %0) local_unnamed_addr #0 {
  %2 = alloca %union.TValue, align 8
  %3 = getelementptr inbounds nuw i8, ptr %0, i64 16
  %4 = load i64, ptr %3, align 8, !tbaa !30
  %5 = inttoptr i64 %4 to ptr
  %6 = getelementptr inbounds nuw i8, ptr %5, i64 728
  %7 = load i64, ptr %6, align 8, !tbaa !22
  %8 = inttoptr i64 %7 to ptr
  %9 = getelementptr inbounds nuw i8, ptr %8, i64 40
  %10 = load i64, ptr %9, align 8, !tbaa !36
  %11 = inttoptr i64 %10 to ptr
  %12 = getelementptr inbounds nuw i8, ptr %8, i64 32
  store i64 0, ptr %12, align 8, !tbaa !37
  %13 = getelementptr inbounds nuw i8, ptr %8, i64 52
  %14 = load i32, ptr %13, align 4, !tbaa !38
  %15 = zext i32 %14 to i64
  %16 = getelementptr inbounds nuw i8, ptr %5, i64 32
  br label %17

17:                                               ; preds = %1, %35
  %.024 = phi i64 [ %15, %1 ], [ %36, %35 ]
  %18 = getelementptr inbounds nuw %struct.Node, ptr %11, i64 %.024
  %19 = load i64, ptr %18, align 8, !tbaa !23
  %20 = icmp eq i64 %19, -1
  br i1 %20, label %35, label %21

21:                                               ; preds = %17
  %22 = getelementptr inbounds nuw i8, ptr %18, i64 8
  %23 = load i64, ptr %22, align 8, !tbaa !23
  %.mask = and i64 %23, -140737488355328
  %24 = icmp eq i64 %.mask, -1548112371908608
  br i1 %24, label %25, label %35

25:                                               ; preds = %21
  %26 = and i64 %23, 140737488355327
  %27 = inttoptr i64 %26 to ptr
  call void @llvm.lifetime.start.p0(i64 8, ptr nonnull %2) #8
  %28 = getelementptr inbounds nuw i8, ptr %27, i64 8
  %29 = load i8, ptr %28, align 8, !tbaa !23
  %30 = and i8 %29, -24
  %31 = load i8, ptr %16, align 8, !tbaa !35
  %32 = and i8 %31, 3
  %33 = or disjoint i8 %32, %30
  store i8 %33, ptr %28, align 8, !tbaa !23
  %34 = load i64, ptr %18, align 8, !tbaa !23
  store i64 %34, ptr %2, align 8, !tbaa !23
  store i64 -1, ptr %18, align 8, !tbaa !23
  call fastcc void @gc_call_finalizer(ptr noundef %5, ptr noundef %0, ptr noundef %2, ptr noundef %27)
  call void @llvm.lifetime.end.p0(i64 8, ptr nonnull %2) #8
  br label %35

35:                                               ; preds = %17, %21, %25
  %36 = add nsw i64 %.024, -1
  %37 = icmp sgt i64 %.024, 0
  br i1 %37, label %17, label %38, !llvm.loop !39

38:                                               ; preds = %35
  ret void
}